; Function Attrs: mustprogress nofree norecurse nosync nounwind willreturn memory(argmem: readwrite) uwtable
define hidden void @_ZN17opencv_tensorflow10VersionDef12InternalSwapEPS0_(ptr noundef nonnull align 8 captures(none) dereferenceable(48) %0, ptr noundef captures(none) %1) local_unnamed_addr #14 align 2 personality ptr @__gxx_personality_v0 {
  %3 = getelementptr inbounds nuw i8, ptr %0, i64 8
  %4 = getelementptr inbounds nuw i8, ptr %1, i64 8
  %5 = load i64, ptr %3, align 8, !tbaa !58
  %6 = load i64, ptr %4, align 8, !tbaa !58
  store i64 %6, ptr %3, align 8, !tbaa !58
  store i64 %5, ptr %4, align 8, !tbaa !58
  %7 = getelementptr inbounds nuw i8, ptr %0, i64 16
  %8 = getelementptr inbounds nuw i8, ptr %1, i64 16
  %.0.copyload.i.i.i = load i128, ptr %7, align 8
  tail call void @llvm.memcpy.p0.p0.i64(ptr noundef nonnull align 8 dereferenceable(16) %7, ptr noundef nonnull align 1 dereferenceable(16) %8, i64 16, i1 false)
  store i128 %.0.copyload.i.i.i, ptr %8, align 1
  %9 = getelementptr inbounds nuw i8, ptr %0, i64 36
  %10 = getelementptr inbounds nuw i8, ptr %1, i64 36
  %.0.copyload.i.i = load i64, ptr %9, align 4
  %11 = load i64, ptr %10, align 1
  store i64 %11, ptr %9, align 4
  store i64 %.0.copyload.i.i, ptr %10, align 1
  ret void
}